target datalayout = "e-m:e-p270:32:32-p271:32:32-p272:64:64-i64:64-i128:128-f80:128-n8:16:32:64-S128"
target triple = "x86_64-pc-linux-gnu"

%"class.mitsuba::MemoryStream" = type <{ %"class.mitsuba::Stream", i64, i64, i64, i8, [7 x i8], ptr, i8, [7 x i8] }>
%"class.mitsuba::Stream" = type { %"class.mitsuba::Object.base", i32 }
%"class.mitsuba::Object.base" = type <{ ptr, %"struct.std::__1::atomic" }>
%"struct.std::__1::atomic" = type { %"struct.std::__1::__atomic_base" }
%"struct.std::__1::__atomic_base" = type { %"struct.std::__1::__atomic_base.0" }
%"struct.std::__1::__atomic_base.0" = type { %"struct.std::__1::__cxx_atomic_impl" }
%"struct.std::__1::__cxx_atomic_impl" = type { %"struct.std::__1::__cxx_atomic_base_impl" }
%"struct.std::__1::__cxx_atomic_base_impl" = type { i32 }
%"class.std::__1::basic_string" = type { %"class.std::__1::__compressed_pair" }
%"class.std::__1::__compressed_pair" = type { %"struct.std::__1::__compressed_pair_elem" }
%"struct.std::__1::__compressed_pair_elem" = type { %"struct.std::__1::basic_string<char>::__rep" }
%"struct.std::__1::basic_string<char>::__rep" = type { %union.anon }
%union.anon = type { %"struct.std::__1::basic_string<char>::__long" }
%"struct.std::__1::basic_string<char>::__long" = type { %struct.anon.1, i64, ptr }
%struct.anon.1 = type { i64 }

@_ZN7mitsuba12MemoryStream7m_classE = global ptr null, align 8
@.str = private unnamed_addr constant [116 x i8] c"generated/home/dtcxzyw/WorkSpace/Projects/compilers/llvm-opt-benchmark/bench/mitsuba3/mitsuba3/src/core/mstream.cpp\00", align 1
@.str.3 = private unnamed_addr constant [78 x i8] c"Tried to resize a buffer, which doesn't belong to this MemoryStream instance!\00", align 1

; Function Attrs: mustprogress uwtable
define void @_ZN7mitsuba12MemoryStream6resizeEm(ptr noundef nonnull align 8 dereferenceable(57) %0, i64 noundef %1) #0 align 2 personality ptr @__gxx_personality_v0 {
  %3 = alloca ptr, align 8
  %4 = alloca i64, align 8
  %5 = alloca %"class.std::__1::basic_string", align 8
  %6 = alloca ptr, align 8
  %7 = alloca i32, align 4
  store ptr %0, ptr %3, align 8
  store i64 %1, ptr %4, align 8
  %8 = load ptr, ptr %3, align 8
  %9 = getelementptr inbounds %"class.mitsuba::MemoryStream", ptr %8, i32 0, i32 4
  %10 = load i8, ptr %9, align 8
  %11 = trunc i8 %10 to i1
  br i1 %11, label %21, label %12

12:                                               ; preds = %2
  br label %13

13:                                               ; preds = %12
  %14 = load ptr, ptr @_ZN7mitsuba12MemoryStream7m_classE, align 8
  call void @_ZN10tinyformat6formatIJEEENSt3__112basic_stringIcNS1_11char_traitsIcEENS1_9allocatorIcEEEEPKcDpRKT_(ptr dead_on_unwind writable sret(%"class.std::__1::basic_string") align 8 %5, ptr noundef @.str.3)
  invoke void @_ZN7mitsuba6detail5ThrowENS_8LogLevelEPKNS_5ClassEPKciRKNSt3__112basic_stringIcNS7_11char_traitsIcEENS7_9allocatorIcEEEE(i32 noundef 400, ptr noundef %14, ptr noundef @.str, i32 noundef 59, ptr noundef nonnull align 8 dereferenceable(24) %5) #16
          to label %15 unwind label %16

15:                                               ; preds = %13
  unreachable

16:                                               ; preds = %13
  %17 = landingpad { ptr, i32 }
          cleanup
  %18 = extractvalue { ptr, i32 } %17, 0
  store ptr %18, ptr %6, align 8
  %19 = extractvalue { ptr, i32 } %17, 1
  store i32 %19, ptr %7, align 4
  call void @_ZNSt3__112basic_stringIcNS_11char_traitsIcEENS_9allocatorIcEEED1Ev(ptr noundef nonnull align 8 dereferenceable(24) %5) #15
  br label %53

20:                                               ; No predecessors!
  br label %21

21:                                               ; preds = %20, %2
  %22 = getelementptr inbounds %"class.mitsuba::MemoryStream", ptr %8, i32 0, i32 6
  %23 = load ptr, ptr %22, align 8
  %24 = icmp eq ptr %23, null
  br i1 %24, label %25, label %29

25:                                               ; preds = %21
  %26 = load i64, ptr %4, align 8
  %27 = call noalias ptr @malloc(i64 noundef %26) #17
  %28 = getelementptr inbounds %"class.mitsuba::MemoryStream", ptr %8, i32 0, i32 6
  store ptr %27, ptr %28, align 8
  br label %35

29:                                               ; preds = %21
  %30 = getelementptr inbounds %"class.mitsuba::MemoryStream", ptr %8, i32 0, i32 6
  %31 = load ptr, ptr %30, align 8
  %32 = load i64, ptr %4, align 8
  %33 = call ptr @realloc(ptr noundef %31, i64 noundef %32) #18
  %34 = getelementptr inbounds %"class.mitsuba::MemoryStream", ptr %8, i32 0, i32 6
  store ptr %33, ptr %34, align 8
  br label %35

35:                                               ; preds = %29, %25
  %36 = load i64, ptr %4, align 8
  %37 = getelementptr inbounds %"class.mitsuba::MemoryStream", ptr %8, i32 0, i32 1
  %38 = load i64, ptr %37, align 8
  %39 = icmp ugt i64 %36, %38
  br i1 %39, label %40, label %50

40:                                               ; preds = %35
  %41 = getelementptr inbounds %"class.mitsuba::MemoryStream", ptr %8, i32 0, i32 6
  %42 = load ptr, ptr %41, align 8
  %43 = getelementptr inbounds %"class.mitsuba::MemoryStream", ptr %8, i32 0, i32 1
  %44 = load i64, ptr %43, align 8
  %45 = getelementptr inbounds i8, ptr %42, i64 %44
  %46 = load i64, ptr %4, align 8
  %47 = getelementptr inbounds %"class.mitsuba::MemoryStream", ptr %8, i32 0, i32 1
  %48 = load i64, ptr %47, align 8
  %49 = sub i64 %46, %48
  call void @llvm.memset.p0.i64(ptr align 1 %45, i8 0, i64 %49, i1 false)
  br label %50

50:                                               ; preds = %40, %35
  %51 = load i64, ptr %4, align 8
  %52 = getelementptr inbounds %"class.mitsuba::MemoryStream", ptr %8, i32 0, i32 1
  store i64 %51, ptr %52, align 8
  ret void

53:                                               ; preds = %16
  %54 = load ptr, ptr %6, align 8
  %55 = load i32, ptr %7, align 4
  %56 = insertvalue { ptr, i32 } poison, ptr %54, 0
  %57 = insertvalue { ptr, i32 } %56, i32 %55, 1
  resume { ptr, i32 } %57
}