; Function Attrs: mustprogress uwtable
define void @_ZN7mitsuba12MemoryStream6resizeEm(ptr nocapture noundef nonnull align 8 dereferenceable(57) %0, i64 noundef %1) local_unnamed_addr #0 align 2 personality ptr @__gxx_personality_v0 {
  %3 = alloca %"class.std::__1::basic_string", align 8
  %4 = getelementptr inbounds i8, ptr %0, i64 40
  %5 = load i8, ptr %4, align 8
  %6 = and i8 %5, 1
  %.not = icmp eq i8 %6, 0
  br i1 %.not, label %7, label %12

7:                                                ; preds = %2
  %8 = load ptr, ptr @_ZN7mitsuba12MemoryStream7m_classE, align 8
  call void @_ZN10tinyformat6formatIJEEENSt3__112basic_stringIcNS1_11char_traitsIcEENS1_9allocatorIcEEEEPKcDpRKT_(ptr dead_on_unwind nonnull writable sret(%"class.std::__1::basic_string") align 8 %3, ptr noundef nonnull @.str.3)
  invoke void @_ZN7mitsuba6detail5ThrowENS_8LogLevelEPKNS_5ClassEPKciRKNSt3__112basic_stringIcNS7_11char_traitsIcEENS7_9allocatorIcEEEE(i32 noundef 400, ptr noundef %8, ptr noundef nonnull @.str, i32 noundef 59, ptr noundef nonnull align 8 dereferenceable(24) %3) #18
          to label %9 unwind label %10

9:                                                ; preds = %7
  unreachable

10:                                               ; preds = %7
  %11 = landingpad { ptr, i32 }
          cleanup
  call void @_ZNSt3__112basic_stringIcNS_11char_traitsIcEENS_9allocatorIcEEED1Ev(ptr noundef nonnull align 8 dereferenceable(24) %3) #17
  resume { ptr, i32 } %11

12:                                               ; preds = %2
  %13 = getelementptr inbounds i8, ptr %0, i64 48
  %14 = load ptr, ptr %13, align 8
  %15 = icmp eq ptr %14, null
  br i1 %15, label %16, label %18

16:                                               ; preds = %12
  %17 = tail call noalias ptr @malloc(i64 noundef %1) #19
  br label %20

18:                                               ; preds = %12
  %19 = tail call ptr @realloc(ptr noundef nonnull %14, i64 noundef %1) #20
  br label %20

20:                                               ; preds = %18, %16
  %storemerge = phi ptr [ %19, %18 ], [ %17, %16 ]
  store ptr %storemerge, ptr %13, align 8
  %21 = getelementptr inbounds i8, ptr %0, i64 16
  %22 = load i64, ptr %21, align 8
  %23 = icmp ult i64 %22, %1
  br i1 %23, label %24, label %27

24:                                               ; preds = %20
  %25 = getelementptr inbounds i8, ptr %storemerge, i64 %22
  %26 = sub i64 %1, %22
  tail call void @llvm.memset.p0.i64(ptr align 1 %25, i8 0, i64 %26, i1 false)
  br label %27

27:                                               ; preds = %24, %20
  store i64 %1, ptr %21, align 8
  ret void
}